target datalayout = "e-m:e-p270:32:32-p271:32:32-p272:64:64-i64:64-i128:128-f80:128-n8:16:32:64-S128"
target triple = "x86_64-pc-linux-gnu"

%struct.jpeg_decompress_struct = type { ptr, ptr, ptr, ptr, i32, i32, ptr, i32, i32, i32, i32, i32, i32, i32, double, i32, i32, i32, i32, i32, i32, i32, i32, i32, i32, i32, i32, i32, i32, i32, i32, i32, i32, ptr, i32, i32, i32, i32, i32, ptr, [4 x ptr], [4 x ptr], [4 x ptr], i32, ptr, i32, i32, [16 x i8], [16 x i8], [16 x i8], i32, i32, i8, i8, i8, i16, i16, i32, i8, i32, ptr, i32, i32, i32, i32, ptr, i32, [4 x ptr], i32, i32, i32, [10 x i32], i32, i32, i32, i32, i32, ptr, ptr, ptr, ptr, ptr, ptr, ptr, ptr, ptr, ptr, ptr }

; Function Attrs: nounwind uwtable
define internal void @h2v2_upsample(ptr noundef %0, ptr noundef %1, ptr noundef %2, ptr noundef %3) #0 {
  %5 = alloca ptr, align 8
  %6 = alloca ptr, align 8
  %7 = alloca ptr, align 8
  %8 = alloca ptr, align 8
  %9 = alloca ptr, align 8
  %10 = alloca ptr, align 8
  %11 = alloca ptr, align 8
  %12 = alloca i8, align 1
  %13 = alloca ptr, align 8
  %14 = alloca i32, align 4
  %15 = alloca i32, align 4
  store ptr %0, ptr %5, align 8, !tbaa !3
  store ptr %1, ptr %6, align 8, !tbaa !45
  store ptr %2, ptr %7, align 8, !tbaa !68
  store ptr %3, ptr %8, align 8, !tbaa !74
  call void @llvm.lifetime.start.p0(i64 8, ptr %9) #3
  %16 = load ptr, ptr %8, align 8, !tbaa !74
  %17 = load ptr, ptr %16, align 8, !tbaa !68
  store ptr %17, ptr %9, align 8, !tbaa !68
  call void @llvm.lifetime.start.p0(i64 8, ptr %10) #3
  call void @llvm.lifetime.start.p0(i64 8, ptr %11) #3
  call void @llvm.lifetime.start.p0(i64 1, ptr %12) #3
  call void @llvm.lifetime.start.p0(i64 8, ptr %13) #3
  call void @llvm.lifetime.start.p0(i64 4, ptr %14) #3
  call void @llvm.lifetime.start.p0(i64 4, ptr %15) #3
  store i32 0, ptr %15, align 4, !tbaa !55
  store i32 0, ptr %14, align 4, !tbaa !55
  br label %18

18:                                               ; preds = %55, %4
  %19 = load i32, ptr %15, align 4, !tbaa !55
  %20 = load ptr, ptr %5, align 8, !tbaa !3
  %21 = getelementptr inbounds nuw %struct.jpeg_decompress_struct, ptr %20, i32 0, i32 62
  %22 = load i32, ptr %21, align 4, !tbaa !63
  %23 = icmp slt i32 %19, %22
  br i1 %23, label %24, label %68

24:                                               ; preds = %18
  %25 = load ptr, ptr %7, align 8, !tbaa !68
  %26 = load i32, ptr %14, align 4, !tbaa !55
  %27 = sext i32 %26 to i64
  %28 = getelementptr inbounds ptr, ptr %25, i64 %27
  %29 = load ptr, ptr %28, align 8, !tbaa !81
  store ptr %29, ptr %10, align 8, !tbaa !81
  %30 = load ptr, ptr %9, align 8, !tbaa !68
  %31 = load i32, ptr %15, align 4, !tbaa !55
  %32 = sext i32 %31 to i64
  %33 = getelementptr inbounds ptr, ptr %30, i64 %32
  %34 = load ptr, ptr %33, align 8, !tbaa !81
  store ptr %34, ptr %11, align 8, !tbaa !81
  %35 = load ptr, ptr %11, align 8, !tbaa !81
  %36 = load ptr, ptr %5, align 8, !tbaa !3
  %37 = getelementptr inbounds nuw %struct.jpeg_decompress_struct, ptr %36, i32 0, i32 27
  %38 = load i32, ptr %37, align 8, !tbaa !67
  %39 = zext i32 %38 to i64
  %40 = getelementptr inbounds nuw i8, ptr %35, i64 %39
  store ptr %40, ptr %13, align 8, !tbaa !81
  br label %41

41:                                               ; preds = %45, %24
  %42 = load ptr, ptr %11, align 8, !tbaa !81
  %43 = load ptr, ptr %13, align 8, !tbaa !81
  %44 = icmp ult ptr %42, %43
  br i1 %44, label %45, label %55

45:                                               ; preds = %41
  %46 = load ptr, ptr %10, align 8, !tbaa !81
  %47 = getelementptr inbounds nuw i8, ptr %46, i32 1
  store ptr %47, ptr %10, align 8, !tbaa !81
  %48 = load i8, ptr %46, align 1, !tbaa !39
  store i8 %48, ptr %12, align 1, !tbaa !39
  %49 = load i8, ptr %12, align 1, !tbaa !39
  %50 = load ptr, ptr %11, align 8, !tbaa !81
  %51 = getelementptr inbounds nuw i8, ptr %50, i32 1
  store ptr %51, ptr %11, align 8, !tbaa !81
  store i8 %49, ptr %50, align 1, !tbaa !39
  %52 = load i8, ptr %12, align 1, !tbaa !39
  %53 = load ptr, ptr %11, align 8, !tbaa !81
  %54 = getelementptr inbounds nuw i8, ptr %53, i32 1
  store ptr %54, ptr %11, align 8, !tbaa !81
  store i8 %52, ptr %53, align 1, !tbaa !39
  br label %41, !llvm.loop !92

55:                                               ; preds = %41
  %56 = load ptr, ptr %9, align 8, !tbaa !68
  %57 = load i32, ptr %15, align 4, !tbaa !55
  %58 = load ptr, ptr %9, align 8, !tbaa !68
  %59 = load i32, ptr %15, align 4, !tbaa !55
  %60 = add nsw i32 %59, 1
  %61 = load ptr, ptr %5, align 8, !tbaa !3
  %62 = getelementptr inbounds nuw %struct.jpeg_decompress_struct, ptr %61, i32 0, i32 27
  %63 = load i32, ptr %62, align 8, !tbaa !67
  call void @jcopy_sample_rows(ptr noundef %56, i32 noundef %57, ptr noundef %58, i32 noundef %60, i32 noundef 1, i32 noundef %63)
  %64 = load i32, ptr %14, align 4, !tbaa !55
  %65 = add nsw i32 %64, 1
  store i32 %65, ptr %14, align 4, !tbaa !55
  %66 = load i32, ptr %15, align 4, !tbaa !55
  %67 = add nsw i32 %66, 2
  store i32 %67, ptr %15, align 4, !tbaa !55
  br label %18, !llvm.loop !93

68:                                               ; preds = %18
  call void @llvm.lifetime.end.p0(i64 4, ptr %15) #3
  call void @llvm.lifetime.end.p0(i64 4, ptr %14) #3
  call void @llvm.lifetime.end.p0(i64 8, ptr %13) #3
  call void @llvm.lifetime.end.p0(i64 1, ptr %12) #3
  call void @llvm.lifetime.end.p0(i64 8, ptr %11) #3
  call void @llvm.lifetime.end.p0(i64 8, ptr %10) #3
  call void @llvm.lifetime.end.p0(i64 8, ptr %9) #3
  ret void
}