; Function Attrs: nounwind uwtable
define internal void @h2v2_upsample(ptr noundef readonly captures(none) %0, ptr readnone captures(none) %1, ptr noundef readonly captures(none) %2, ptr noundef readonly captures(none) %3) #0 {
  %5 = load ptr, ptr %3, align 8, !tbaa !71
  %6 = getelementptr inbounds nuw i8, ptr %0, i64 412
  %7 = load i32, ptr %6, align 4, !tbaa !59
  %8 = icmp sgt i32 %7, 0
  br i1 %8, label %.lr.ph30, label %._crit_edge31

.lr.ph30:                                         ; preds = %4
  %9 = getelementptr inbounds nuw i8, ptr %0, i64 136
  br label %10

10:                                               ; preds = %.lr.ph30, %._crit_edge
  %indvars.iv32 = phi i64 [ 0, %.lr.ph30 ], [ %indvars.iv.next33, %._crit_edge ]
  %indvars.iv = phi i64 [ 0, %.lr.ph30 ], [ %indvars.iv.next, %._crit_edge ]
  %indvars34 = trunc i64 %indvars.iv to i32
  %11 = getelementptr inbounds nuw ptr, ptr %5, i64 %indvars.iv
  %12 = load ptr, ptr %11, align 8, !tbaa !76
  %13 = load i32, ptr %9, align 8, !tbaa !65
  %14 = zext i32 %13 to i64
  %15 = getelementptr inbounds nuw i8, ptr %12, i64 %14
  %.not = icmp eq i32 %13, 0
  br i1 %.not, label %._crit_edge, label %.lr.ph.preheader

.lr.ph.preheader:                                 ; preds = %10
  %16 = getelementptr inbounds nuw ptr, ptr %2, i64 %indvars.iv32
  %17 = load ptr, ptr %16, align 8, !tbaa !76
  br label %.lr.ph

.lr.ph:                                           ; preds = %.lr.ph.preheader, %.lr.ph
  %.02326 = phi ptr [ %18, %.lr.ph ], [ %17, %.lr.ph.preheader ]
  %.02425 = phi ptr [ %21, %.lr.ph ], [ %12, %.lr.ph.preheader ]
  %18 = getelementptr inbounds nuw i8, ptr %.02326, i64 1
  %19 = load i8, ptr %.02326, align 1, !tbaa !37
  %20 = getelementptr inbounds nuw i8, ptr %.02425, i64 1
  store i8 %19, ptr %.02425, align 1, !tbaa !37
  %21 = getelementptr inbounds nuw i8, ptr %.02425, i64 2
  store i8 %19, ptr %20, align 1, !tbaa !37
  %22 = icmp ult ptr %21, %15
  br i1 %22, label %.lr.ph, label %._crit_edge.loopexit, !llvm.loop !88

._crit_edge.loopexit:                             ; preds = %.lr.ph
  %.pre = load i32, ptr %9, align 8, !tbaa !65
  br label %._crit_edge

._crit_edge:                                      ; preds = %._crit_edge.loopexit, %10
  %23 = phi i32 [ %.pre, %._crit_edge.loopexit ], [ 0, %10 ]
  %24 = or disjoint i32 %indvars34, 1
  tail call void @jcopy_sample_rows(ptr noundef %5, i32 noundef %indvars34, ptr noundef %5, i32 noundef %24, i32 noundef 1, i32 noundef %23) #7
  %indvars.iv.next33 = add nuw nsw i64 %indvars.iv32, 1
  %indvars.iv.next = add nuw nsw i64 %indvars.iv, 2
  %25 = load i32, ptr %6, align 4, !tbaa !59
  %26 = trunc nuw i64 %indvars.iv.next to i32
  %27 = icmp sgt i32 %25, %26
  br i1 %27, label %10, label %._crit_edge31, !llvm.loop !89

._crit_edge31:                                    ; preds = %._crit_edge, %4
  ret void
}